; Function Attrs: mustprogress uwtable
define dso_local noundef zeroext i1 @_ZN4Luau6Parser16expectAndConsumeEcPKc(ptr noundef nonnull align 8 dereferenceable(1072) %0, i8 noundef signext %1, ptr noundef %2) local_unnamed_addr #2 align 2 {
  %4 = alloca %"struct.Luau::Lexeme", align 8
  %5 = zext i8 %1 to i32
  %6 = getelementptr inbounds nuw i8, ptr %0, i64 128
  %7 = load i32, ptr %6, align 8, !tbaa !79
  %.not.i = icmp eq i32 %7, %5
  br i1 %.not.i, label %13, label %8

8:                                                ; preds = %3
  %9 = getelementptr inbounds nuw i8, ptr %0, i64 96
  tail call void @_ZN4Luau6Parser20expectAndConsumeFailENS_6Lexeme4TypeEPKc(ptr noundef nonnull align 8 dereferenceable(1072) %0, i32 noundef %5, ptr noundef %2)
  call void @llvm.lifetime.start.p0(i64 32, ptr nonnull %4) #29
  call void @_ZN4Luau5Lexer9lookaheadEv(ptr dead_on_unwind nonnull writable sret(%"struct.Luau::Lexeme") align 8 %4, ptr noundef nonnull align 8 dereferenceable(120) %9)
  %10 = load i32, ptr %4, align 8, !tbaa !79
  %11 = icmp eq i32 %10, %5
  call void @llvm.lifetime.end.p0(i64 32, ptr nonnull %4) #29
  br i1 %11, label %12, label %_ZN4Luau6Parser16expectAndConsumeENS_6Lexeme4TypeEPKc.exit

12:                                               ; preds = %8
  call void @_ZN4Luau6Parser10nextLexemeEv(ptr noundef nonnull align 8 dereferenceable(1072) %0)
  call void @_ZN4Luau6Parser10nextLexemeEv(ptr noundef nonnull align 8 dereferenceable(1072) %0)
  br label %_ZN4Luau6Parser16expectAndConsumeENS_6Lexeme4TypeEPKc.exit

13:                                               ; preds = %3
  tail call void @_ZN4Luau6Parser10nextLexemeEv(ptr noundef nonnull align 8 dereferenceable(1072) %0)
  br label %_ZN4Luau6Parser16expectAndConsumeENS_6Lexeme4TypeEPKc.exit

_ZN4Luau6Parser16expectAndConsumeENS_6Lexeme4TypeEPKc.exit: ; preds = %8, %12, %13
  ret i1 %.not.i
}